target datalayout = "e-m:e-p270:32:32-p271:32:32-p272:64:64-i64:64-i128:128-f80:128-n8:16:32:64-S128"
target triple = "x86_64-pc-linux-gnu"

@proto_register_ecpri.ett = internal global [5 x ptr] [ptr @ett_ecpri, ptr @ett_ecpri_header, ptr @ett_ecpri_payload, ptr @ett_ecpri_timestamp, ptr @ett_ecpri_element], align 16
@.str.140 = private unnamed_addr constant [38 x i8] c"evolved Common Public Radio Interface\00", align 1
@.str.141 = private unnamed_addr constant [6 x i8] c"eCPRI\00", align 1
@.str.142 = private unnamed_addr constant [6 x i8] c"ecpri\00", align 1
@proto_ecpri = internal global i32 0, align 4
@ecpri_handle = internal global ptr null, align 8
@.str.143 = private unnamed_addr constant [23 x i8] c"ecpripref.msg.decoding\00", align 1
@.str.144 = private unnamed_addr constant [21 x i8] c"Decode Message Types\00", align 1
@.str.145 = private unnamed_addr constant [63 x i8] c"Decode the Message Types according to eCPRI Specification V2.0\00", align 1
@pref_message_type_decoding = internal global i8 1, align 1
@meas_id_table = internal global ptr null, align 8
@meas_results_table = internal global ptr null, align 8

; Function Attrs: null_pointer_is_valid sspstrong uwtable
define hidden void @proto_register_ecpri() #0 {
  %1 = alloca ptr, align 8
  %2 = alloca ptr, align 8
  call void @llvm.lifetime.start.p0(i64 8, ptr %1) #5
  call void @llvm.lifetime.start.p0(i64 8, ptr %2) #5
  %3 = call i32 @proto_register_protocol(ptr noundef @.str.140, ptr noundef @.str.141, ptr noundef @.str.142)
  store i32 %3, ptr @proto_ecpri, align 4
  %4 = load i32, ptr @proto_ecpri, align 4
  %5 = call ptr @register_dissector(ptr noundef @.str.142, ptr noundef @dissect_ecpri, i32 noundef %4)
  store ptr %5, ptr @ecpri_handle, align 8
  %6 = load i32, ptr @proto_ecpri, align 4
  call void @proto_register_field_array(i32 noundef %6, ptr noundef @proto_register_ecpri.hf, i32 noundef 58)
  call void @proto_register_subtree_array(ptr noundef @proto_register_ecpri.ett, i32 noundef 5)
  %7 = load i32, ptr @proto_ecpri, align 4
  %8 = call ptr @expert_register_protocol(i32 noundef %7)
  store ptr %8, ptr %1, align 8
  %9 = load ptr, ptr %1, align 8
  call void @expert_register_field_array(ptr noundef %9, ptr noundef @proto_register_ecpri.ei, i32 noundef 13)
  %10 = load i32, ptr @proto_ecpri, align 4
  %11 = call ptr @prefs_register_protocol(i32 noundef %10, ptr noundef null)
  store ptr %11, ptr %2, align 8
  %12 = load ptr, ptr %2, align 8
  call void @prefs_register_bool_preference(ptr noundef %12, ptr noundef @.str.143, ptr noundef @.str.144, ptr noundef @.str.145, ptr noundef @pref_message_type_decoding)
  %13 = call ptr @wmem_epan_scope()
  %14 = call ptr @wmem_file_scope()
  %15 = call noalias ptr @wmem_tree_new_autoreset(ptr noundef %13, ptr noundef %14)
  store ptr %15, ptr @meas_id_table, align 8
  %16 = call ptr @wmem_epan_scope()
  %17 = call ptr @wmem_file_scope()
  %18 = call noalias ptr @wmem_tree_new_autoreset(ptr noundef %16, ptr noundef %17)
  store ptr %18, ptr @meas_results_table, align 8
  call void @llvm.lifetime.end.p0(i64 8, ptr %2) #5
  call void @llvm.lifetime.end.p0(i64 8, ptr %1) #5
  ret void
}