; Function Attrs: null_pointer_is_valid sspstrong uwtable
define hidden void @proto_register_ecpri() local_unnamed_addr #0 {
  %1 = tail call i32 @proto_register_protocol(ptr noundef nonnull @.str.140, ptr noundef nonnull @.str.141, ptr noundef nonnull @.str.142)
  store i32 %1, ptr @proto_ecpri, align 4
  %2 = tail call ptr @register_dissector(ptr noundef nonnull @.str.142, ptr noundef nonnull @dissect_ecpri, i32 noundef %1)
  store ptr %2, ptr @ecpri_handle, align 8
  %3 = load i32, ptr @proto_ecpri, align 4
  tail call void @proto_register_field_array(i32 noundef %3, ptr noundef nonnull @proto_register_ecpri.hf, i32 noundef 58)
  tail call void @proto_register_subtree_array(ptr noundef nonnull @proto_register_ecpri.ett, i32 noundef 5)
  %4 = load i32, ptr @proto_ecpri, align 4
  %5 = tail call ptr @expert_register_protocol(i32 noundef %4)
  tail call void @expert_register_field_array(ptr noundef %5, ptr noundef nonnull @proto_register_ecpri.ei, i32 noundef 13)
  %6 = load i32, ptr @proto_ecpri, align 4
  %7 = tail call ptr @prefs_register_protocol(i32 noundef %6, ptr noundef null)
  tail call void @prefs_register_bool_preference(ptr noundef %7, ptr noundef nonnull @.str.143, ptr noundef nonnull @.str.144, ptr noundef nonnull @.str.145, ptr noundef nonnull @pref_message_type_decoding)
  %8 = tail call ptr @wmem_epan_scope()
  %9 = tail call ptr @wmem_file_scope()
  %10 = tail call noalias ptr @wmem_tree_new_autoreset(ptr noundef %8, ptr noundef %9)
  store ptr %10, ptr @meas_id_table, align 8
  %11 = tail call ptr @wmem_epan_scope()
  %12 = tail call ptr @wmem_file_scope()
  %13 = tail call noalias ptr @wmem_tree_new_autoreset(ptr noundef %11, ptr noundef %12)
  store ptr %13, ptr @meas_results_table, align 8
  ret void
}